target datalayout = "e-m:e-p270:32:32-p271:32:32-p272:64:64-i64:64-i128:128-f80:128-n8:16:32:64-S128"
target triple = "x86_64-pc-linux-gnu"

%struct.KeccakWidth1600_SpongeInstanceStruct = type { [200 x i8], i32, i32, i32 }

; Function Attrs: nounwind uwtable
define hidden i32 @KeccakWidth1600_SpongeAbsorb(ptr noundef %0, ptr noundef %1, i64 noundef %2) #0 {
  %4 = alloca i32, align 4
  %5 = alloca ptr, align 8
  %6 = alloca ptr, align 8
  %7 = alloca i64, align 8
  %8 = alloca i64, align 8
  %9 = alloca i64, align 8
  %10 = alloca i32, align 4
  %11 = alloca ptr, align 8
  %12 = alloca i32, align 4
  %13 = alloca i32, align 4
  store ptr %0, ptr %5, align 8, !tbaa !14
  store ptr %1, ptr %6, align 8, !tbaa !8
  store i64 %2, ptr %7, align 8, !tbaa !11
  call void @llvm.lifetime.start.p0(i64 8, ptr %8) #3
  call void @llvm.lifetime.start.p0(i64 8, ptr %9) #3
  call void @llvm.lifetime.start.p0(i64 4, ptr %10) #3
  call void @llvm.lifetime.start.p0(i64 8, ptr %11) #3
  call void @llvm.lifetime.start.p0(i64 4, ptr %12) #3
  %14 = load ptr, ptr %5, align 8, !tbaa !14
  %15 = getelementptr inbounds nuw %struct.KeccakWidth1600_SpongeInstanceStruct, ptr %14, i32 0, i32 1
  %16 = load i32, ptr %15, align 8, !tbaa !16
  %17 = udiv i32 %16, 8
  store i32 %17, ptr %12, align 4, !tbaa !4
  %18 = load ptr, ptr %5, align 8, !tbaa !14
  %19 = getelementptr inbounds nuw %struct.KeccakWidth1600_SpongeInstanceStruct, ptr %18, i32 0, i32 3
  %20 = load i32, ptr %19, align 8, !tbaa !19
  %21 = icmp ne i32 %20, 0
  br i1 %21, label %22, label %23

22:                                               ; preds = %3
  store i32 1, ptr %4, align 4
  store i32 1, ptr %13, align 4
  br label %152

23:                                               ; preds = %3
  store i64 0, ptr %8, align 8, !tbaa !11
  %24 = load ptr, ptr %6, align 8, !tbaa !8
  store ptr %24, ptr %11, align 8, !tbaa !8
  br label %25

25:                                               ; preds = %150, %23
  %26 = load i64, ptr %8, align 8, !tbaa !11
  %27 = load i64, ptr %7, align 8, !tbaa !11
  %28 = icmp ult i64 %26, %27
  br i1 %28, label %29, label %151

29:                                               ; preds = %25
  %30 = load ptr, ptr %5, align 8, !tbaa !14
  %31 = getelementptr inbounds nuw %struct.KeccakWidth1600_SpongeInstanceStruct, ptr %30, i32 0, i32 2
  %32 = load i32, ptr %31, align 4, !tbaa !18
  %33 = icmp eq i32 %32, 0
  br i1 %33, label %34, label %94

34:                                               ; preds = %29
  %35 = load i64, ptr %7, align 8, !tbaa !11
  %36 = load i64, ptr %8, align 8, !tbaa !11
  %37 = sub i64 %35, %36
  %38 = load i32, ptr %12, align 4, !tbaa !4
  %39 = zext i32 %38 to i64
  %40 = icmp uge i64 %37, %39
  br i1 %40, label %41, label %94

41:                                               ; preds = %34
  %42 = load i32, ptr %12, align 4, !tbaa !4
  %43 = urem i32 %42, 8
  %44 = icmp eq i32 %43, 0
  br i1 %44, label %45, label %62

45:                                               ; preds = %41
  %46 = load ptr, ptr %5, align 8, !tbaa !14
  %47 = getelementptr inbounds nuw %struct.KeccakWidth1600_SpongeInstanceStruct, ptr %46, i32 0, i32 0
  %48 = getelementptr inbounds [200 x i8], ptr %47, i64 0, i64 0
  %49 = load i32, ptr %12, align 4, !tbaa !4
  %50 = udiv i32 %49, 8
  %51 = load ptr, ptr %11, align 8, !tbaa !8
  %52 = load i64, ptr %7, align 8, !tbaa !11
  %53 = load i64, ptr %8, align 8, !tbaa !11
  %54 = sub i64 %52, %53
  %55 = call i64 @KeccakF1600_FastLoop_Absorb(ptr noundef %48, i32 noundef %50, ptr noundef %51, i64 noundef %54)
  store i64 %55, ptr %9, align 8, !tbaa !11
  %56 = load i64, ptr %9, align 8, !tbaa !11
  %57 = load i64, ptr %8, align 8, !tbaa !11
  %58 = add i64 %57, %56
  store i64 %58, ptr %8, align 8, !tbaa !11
  %59 = load i64, ptr %9, align 8, !tbaa !11
  %60 = load ptr, ptr %11, align 8, !tbaa !8
  %61 = getelementptr inbounds nuw i8, ptr %60, i64 %59
  store ptr %61, ptr %11, align 8, !tbaa !8
  br label %93

62:                                               ; preds = %41
  %63 = load i64, ptr %7, align 8, !tbaa !11
  %64 = load i64, ptr %8, align 8, !tbaa !11
  %65 = sub i64 %63, %64
  store i64 %65, ptr %9, align 8, !tbaa !11
  br label %66

66:                                               ; preds = %84, %62
  %67 = load i64, ptr %9, align 8, !tbaa !11
  %68 = load i32, ptr %12, align 4, !tbaa !4
  %69 = zext i32 %68 to i64
  %70 = icmp uge i64 %67, %69
  br i1 %70, label %71, label %89

71:                                               ; preds = %66
  %72 = load ptr, ptr %5, align 8, !tbaa !14
  %73 = getelementptr inbounds nuw %struct.KeccakWidth1600_SpongeInstanceStruct, ptr %72, i32 0, i32 0
  %74 = getelementptr inbounds [200 x i8], ptr %73, i64 0, i64 0
  %75 = load ptr, ptr %11, align 8, !tbaa !8
  %76 = load i32, ptr %12, align 4, !tbaa !4
  call void @KeccakP1600_AddBytes(ptr noundef %74, ptr noundef %75, i32 noundef 0, i32 noundef %76)
  %77 = load ptr, ptr %5, align 8, !tbaa !14
  %78 = getelementptr inbounds nuw %struct.KeccakWidth1600_SpongeInstanceStruct, ptr %77, i32 0, i32 0
  %79 = getelementptr inbounds [200 x i8], ptr %78, i64 0, i64 0
  call void @KeccakP1600_Permute_24rounds(ptr noundef %79)
  %80 = load i32, ptr %12, align 4, !tbaa !4
  %81 = load ptr, ptr %11, align 8, !tbaa !8
  %82 = zext i32 %80 to i64
  %83 = getelementptr inbounds nuw i8, ptr %81, i64 %82
  store ptr %83, ptr %11, align 8, !tbaa !8
  br label %84

84:                                               ; preds = %71
  %85 = load i32, ptr %12, align 4, !tbaa !4
  %86 = zext i32 %85 to i64
  %87 = load i64, ptr %9, align 8, !tbaa !11
  %88 = sub i64 %87, %86
  store i64 %88, ptr %9, align 8, !tbaa !11
  br label %66

89:                                               ; preds = %66
  %90 = load i64, ptr %7, align 8, !tbaa !11
  %91 = load i64, ptr %9, align 8, !tbaa !11
  %92 = sub i64 %90, %91
  store i64 %92, ptr %8, align 8, !tbaa !11
  br label %93

93:                                               ; preds = %89, %45
  br label %150

94:                                               ; preds = %34, %29
  %95 = load i64, ptr %7, align 8, !tbaa !11
  %96 = load i64, ptr %8, align 8, !tbaa !11
  %97 = sub i64 %95, %96
  %98 = load i32, ptr %12, align 4, !tbaa !4
  %99 = load ptr, ptr %5, align 8, !tbaa !14
  %100 = getelementptr inbounds nuw %struct.KeccakWidth1600_SpongeInstanceStruct, ptr %99, i32 0, i32 2
  %101 = load i32, ptr %100, align 4, !tbaa !18
  %102 = sub i32 %98, %101
  %103 = zext i32 %102 to i64
  %104 = icmp ugt i64 %97, %103
  br i1 %104, label %105, label %111

105:                                              ; preds = %94
  %106 = load i32, ptr %12, align 4, !tbaa !4
  %107 = load ptr, ptr %5, align 8, !tbaa !14
  %108 = getelementptr inbounds nuw %struct.KeccakWidth1600_SpongeInstanceStruct, ptr %107, i32 0, i32 2
  %109 = load i32, ptr %108, align 4, !tbaa !18
  %110 = sub i32 %106, %109
  store i32 %110, ptr %10, align 4, !tbaa !4
  br label %116

111:                                              ; preds = %94
  %112 = load i64, ptr %7, align 8, !tbaa !11
  %113 = load i64, ptr %8, align 8, !tbaa !11
  %114 = sub i64 %112, %113
  %115 = trunc i64 %114 to i32
  store i32 %115, ptr %10, align 4, !tbaa !4
  br label %116

116:                                              ; preds = %111, %105
  %117 = load i32, ptr %10, align 4, !tbaa !4
  %118 = zext i32 %117 to i64
  %119 = load i64, ptr %8, align 8, !tbaa !11
  %120 = add i64 %119, %118
  store i64 %120, ptr %8, align 8, !tbaa !11
  %121 = load ptr, ptr %5, align 8, !tbaa !14
  %122 = getelementptr inbounds nuw %struct.KeccakWidth1600_SpongeInstanceStruct, ptr %121, i32 0, i32 0
  %123 = getelementptr inbounds [200 x i8], ptr %122, i64 0, i64 0
  %124 = load ptr, ptr %11, align 8, !tbaa !8
  %125 = load ptr, ptr %5, align 8, !tbaa !14
  %126 = getelementptr inbounds nuw %struct.KeccakWidth1600_SpongeInstanceStruct, ptr %125, i32 0, i32 2
  %127 = load i32, ptr %126, align 4, !tbaa !18
  %128 = load i32, ptr %10, align 4, !tbaa !4
  call void @KeccakP1600_AddBytes(ptr noundef %123, ptr noundef %124, i32 noundef %127, i32 noundef %128)
  %129 = load i32, ptr %10, align 4, !tbaa !4
  %130 = load ptr, ptr %11, align 8, !tbaa !8
  %131 = zext i32 %129 to i64
  %132 = getelementptr inbounds nuw i8, ptr %130, i64 %131
  store ptr %132, ptr %11, align 8, !tbaa !8
  %133 = load i32, ptr %10, align 4, !tbaa !4
  %134 = load ptr, ptr %5, align 8, !tbaa !14
  %135 = getelementptr inbounds nuw %struct.KeccakWidth1600_SpongeInstanceStruct, ptr %134, i32 0, i32 2
  %136 = load i32, ptr %135, align 4, !tbaa !18
  %137 = add i32 %136, %133
  store i32 %137, ptr %135, align 4, !tbaa !18
  %138 = load ptr, ptr %5, align 8, !tbaa !14
  %139 = getelementptr inbounds nuw %struct.KeccakWidth1600_SpongeInstanceStruct, ptr %138, i32 0, i32 2
  %140 = load i32, ptr %139, align 4, !tbaa !18
  %141 = load i32, ptr %12, align 4, !tbaa !4
  %142 = icmp eq i32 %140, %141
  br i1 %142, label %143, label %149

143:                                              ; preds = %116
  %144 = load ptr, ptr %5, align 8, !tbaa !14
  %145 = getelementptr inbounds nuw %struct.KeccakWidth1600_SpongeInstanceStruct, ptr %144, i32 0, i32 0
  %146 = getelementptr inbounds [200 x i8], ptr %145, i64 0, i64 0
  call void @KeccakP1600_Permute_24rounds(ptr noundef %146)
  %147 = load ptr, ptr %5, align 8, !tbaa !14
  %148 = getelementptr inbounds nuw %struct.KeccakWidth1600_SpongeInstanceStruct, ptr %147, i32 0, i32 2
  store i32 0, ptr %148, align 4, !tbaa !18
  br label %149

149:                                              ; preds = %143, %116
  br label %150

150:                                              ; preds = %149, %93
  br label %25

151:                                              ; preds = %25
  store i32 0, ptr %4, align 4
  store i32 1, ptr %13, align 4
  br label %152

152:                                              ; preds = %151, %22
  call void @llvm.lifetime.end.p0(i64 4, ptr %12) #3
  call void @llvm.lifetime.end.p0(i64 8, ptr %11) #3
  call void @llvm.lifetime.end.p0(i64 4, ptr %10) #3
  call void @llvm.lifetime.end.p0(i64 8, ptr %9) #3
  call void @llvm.lifetime.end.p0(i64 8, ptr %8) #3
  %153 = load i32, ptr %4, align 4
  ret i32 %153
}