; Function Attrs: nounwind uwtable
define hidden range(i32 0, 2) i32 @KeccakWidth1600_SpongeAbsorb(ptr noundef %0, ptr noundef %1, i64 noundef %2) local_unnamed_addr #0 {
  %4 = getelementptr inbounds nuw i8, ptr %0, i64 200
  %5 = load i32, ptr %4, align 8, !tbaa !7
  %.fr = freeze i32 %5
  %6 = lshr i32 %.fr, 3
  %7 = getelementptr inbounds nuw i8, ptr %0, i64 208
  %8 = load i32, ptr %7, align 8, !tbaa !11
  %.not = icmp eq i32 %8, 0
  br i1 %.not, label %.preheader67, label %.loopexit

.preheader67:                                     ; preds = %3
  %.not75 = icmp eq i64 %2, 0
  br i1 %.not75, label %.loopexit, label %.lr.ph74

.lr.ph74:                                         ; preds = %.preheader67
  %9 = getelementptr inbounds nuw i8, ptr %0, i64 204
  %10 = zext nneg i32 %6 to i64
  %11 = and i32 %.fr, 56
  %12 = icmp eq i32 %11, 0
  %13 = lshr i32 %.fr, 6
  br i1 %12, label %.lr.ph74.split.us, label %.lr.ph74.split

.lr.ph74.split.us:                                ; preds = %.lr.ph74, %27
  %.05573.us = phi ptr [ %.2.us, %27 ], [ %1, %.lr.ph74 ]
  %.05872.us = phi i64 [ %.159.us, %27 ], [ 0, %.lr.ph74 ]
  %14 = load i32, ptr %9, align 4, !tbaa !10
  %15 = icmp ne i32 %14, 0
  %16 = sub i64 %2, %.05872.us
  %.not64.us = icmp ult i64 %16, %10
  %or.cond81 = select i1 %15, i1 true, i1 %.not64.us
  br i1 %or.cond81, label %.lr.ph74.split.us._crit_edge, label %17

17:                                               ; preds = %.lr.ph74.split.us
  %18 = tail call i64 @KeccakF1600_FastLoop_Absorb(ptr noundef nonnull %0, i32 noundef %13, ptr noundef %.05573.us, i64 noundef %16) #4
  %19 = getelementptr inbounds nuw i8, ptr %.05573.us, i64 %18
  br label %27

.lr.ph74.split.us._crit_edge:                     ; preds = %.lr.ph74.split.us
  %20 = sub i32 %6, %14
  %21 = zext i32 %20 to i64
  %.05666.us = tail call i64 @llvm.umin.i64(i64 %16, i64 %21)
  %.056.us = trunc nuw i64 %.05666.us to i32
  tail call void @KeccakP1600_AddBytes(ptr noundef nonnull %0, ptr noundef %.05573.us, i32 noundef %14, i32 noundef %.056.us) #4
  %22 = getelementptr inbounds nuw i8, ptr %.05573.us, i64 %.05666.us
  %23 = load i32, ptr %9, align 4, !tbaa !10
  %24 = add i32 %23, %.056.us
  store i32 %24, ptr %9, align 4, !tbaa !10
  %25 = icmp eq i32 %24, %6
  br i1 %25, label %26, label %27

26:                                               ; preds = %.lr.ph74.split.us._crit_edge
  tail call void @KeccakP1600_Permute_24rounds(ptr noundef nonnull %0) #4
  store i32 0, ptr %9, align 4, !tbaa !10
  br label %27

27:                                               ; preds = %26, %.lr.ph74.split.us._crit_edge, %17
  %.pn = phi i64 [ %18, %17 ], [ %.05666.us, %26 ], [ %.05666.us, %.lr.ph74.split.us._crit_edge ]
  %.2.us = phi ptr [ %19, %17 ], [ %22, %26 ], [ %22, %.lr.ph74.split.us._crit_edge ]
  %.159.us = add i64 %.pn, %.05872.us
  %28 = icmp ult i64 %.159.us, %2
  br i1 %28, label %.lr.ph74.split.us, label %.loopexit

.lr.ph74.split:                                   ; preds = %.lr.ph74, %44
  %.05573 = phi ptr [ %.2, %44 ], [ %1, %.lr.ph74 ]
  %.05872 = phi i64 [ %.159, %44 ], [ 0, %.lr.ph74 ]
  %29 = load i32, ptr %9, align 4, !tbaa !10
  %30 = icmp ne i32 %29, 0
  %31 = sub i64 %2, %.05872
  %.not64 = icmp ult i64 %31, %10
  %or.cond = select i1 %30, i1 true, i1 %.not64
  br i1 %or.cond, label %35, label %.lr.ph

.lr.ph:                                           ; preds = %.lr.ph74.split, %.lr.ph
  %.170 = phi ptr [ %32, %.lr.ph ], [ %.05573, %.lr.ph74.split ]
  %.05769 = phi i64 [ %33, %.lr.ph ], [ %31, %.lr.ph74.split ]
  tail call void @KeccakP1600_AddBytes(ptr noundef %0, ptr noundef %.170, i32 noundef 0, i32 noundef %6) #4
  tail call void @KeccakP1600_Permute_24rounds(ptr noundef %0) #4
  %32 = getelementptr inbounds nuw i8, ptr %.170, i64 %10
  %33 = sub nuw i64 %.05769, %10
  %.not65 = icmp ult i64 %33, %10
  br i1 %.not65, label %._crit_edge, label %.lr.ph

._crit_edge:                                      ; preds = %.lr.ph
  %34 = sub i64 %2, %33
  br label %44

35:                                               ; preds = %.lr.ph74.split
  %36 = sub i32 %6, %29
  %37 = zext i32 %36 to i64
  %.05666 = tail call i64 @llvm.umin.i64(i64 %31, i64 %37)
  %.056 = trunc nuw i64 %.05666 to i32
  %38 = add i64 %.05666, %.05872
  tail call void @KeccakP1600_AddBytes(ptr noundef nonnull %0, ptr noundef %.05573, i32 noundef %29, i32 noundef %.056) #4
  %39 = getelementptr inbounds nuw i8, ptr %.05573, i64 %.05666
  %40 = load i32, ptr %9, align 4, !tbaa !10
  %41 = add i32 %40, %.056
  store i32 %41, ptr %9, align 4, !tbaa !10
  %42 = icmp eq i32 %41, %6
  br i1 %42, label %43, label %44

43:                                               ; preds = %35
  tail call void @KeccakP1600_Permute_24rounds(ptr noundef nonnull %0) #4
  store i32 0, ptr %9, align 4, !tbaa !10
  br label %44

44:                                               ; preds = %35, %43, %._crit_edge
  %.159 = phi i64 [ %34, %._crit_edge ], [ %38, %43 ], [ %38, %35 ]
  %.2 = phi ptr [ %32, %._crit_edge ], [ %39, %43 ], [ %39, %35 ]
  %45 = icmp ult i64 %.159, %2
  br i1 %45, label %.lr.ph74.split, label %.loopexit

.loopexit:                                        ; preds = %44, %27, %.preheader67, %3
  %.0 = phi i32 [ 1, %3 ], [ 0, %.preheader67 ], [ 0, %27 ], [ 0, %44 ]
  ret i32 %.0
}